target datalayout = "e-m:e-p270:32:32-p271:32:32-p272:64:64-i64:64-i128:128-f80:128-n8:16:32:64-S128"
target triple = "x86_64-pc-linux-gnu"

%"struct.duckdb_zstd::rawSeqStore_t" = type { ptr, i64, i64, i64, i64 }
%"struct.duckdb_zstd::rawSeq" = type { i32, i32, i32 }

; Function Attrs: mustprogress nounwind uwtable
define void @_ZN11duckdb_zstd29ZSTD_ldm_skipRawSeqStoreBytesEPNS_13rawSeqStore_tEm(ptr noundef %0, i64 noundef %1) #0 {
  %3 = alloca ptr, align 8
  %4 = alloca i64, align 8
  %5 = alloca i32, align 4
  %6 = alloca %"struct.duckdb_zstd::rawSeq", align 4
  %7 = alloca i32, align 4
  store ptr %0, ptr %3, align 8, !tbaa !3
  store i64 %1, ptr %4, align 8, !tbaa !18
  call void @llvm.lifetime.start.p0(i64 4, ptr %5) #13
  %8 = load ptr, ptr %3, align 8, !tbaa !3
  %9 = getelementptr inbounds nuw %"struct.duckdb_zstd::rawSeqStore_t", ptr %8, i32 0, i32 2
  %10 = load i64, ptr %9, align 8, !tbaa !83
  %11 = load i64, ptr %4, align 8, !tbaa !18
  %12 = add i64 %10, %11
  %13 = trunc i64 %12 to i32
  store i32 %13, ptr %5, align 4, !tbaa !23
  br label %14

14:                                               ; preds = %62, %2
  %15 = load i32, ptr %5, align 4, !tbaa !23
  %16 = icmp ne i32 %15, 0
  br i1 %16, label %17, label %25

17:                                               ; preds = %14
  %18 = load ptr, ptr %3, align 8, !tbaa !3
  %19 = getelementptr inbounds nuw %"struct.duckdb_zstd::rawSeqStore_t", ptr %18, i32 0, i32 1
  %20 = load i64, ptr %19, align 8, !tbaa !81
  %21 = load ptr, ptr %3, align 8, !tbaa !3
  %22 = getelementptr inbounds nuw %"struct.duckdb_zstd::rawSeqStore_t", ptr %21, i32 0, i32 3
  %23 = load i64, ptr %22, align 8, !tbaa !47
  %24 = icmp ult i64 %20, %23
  br label %25

25:                                               ; preds = %17, %14
  %26 = phi i1 [ false, %14 ], [ %24, %17 ]
  br i1 %26, label %27, label %63

27:                                               ; preds = %25
  call void @llvm.lifetime.start.p0(i64 12, ptr %6) #13
  %28 = load ptr, ptr %3, align 8, !tbaa !3
  %29 = getelementptr inbounds nuw %"struct.duckdb_zstd::rawSeqStore_t", ptr %28, i32 0, i32 0
  %30 = load ptr, ptr %29, align 8, !tbaa !53
  %31 = load ptr, ptr %3, align 8, !tbaa !3
  %32 = getelementptr inbounds nuw %"struct.duckdb_zstd::rawSeqStore_t", ptr %31, i32 0, i32 1
  %33 = load i64, ptr %32, align 8, !tbaa !81
  %34 = getelementptr inbounds nuw %"struct.duckdb_zstd::rawSeq", ptr %30, i64 %33
  call void @llvm.memcpy.p0.p0.i64(ptr align 4 %6, ptr align 4 %34, i64 12, i1 false), !tbaa.struct !84
  %35 = load i32, ptr %5, align 4, !tbaa !23
  %36 = getelementptr inbounds nuw %"struct.duckdb_zstd::rawSeq", ptr %6, i32 0, i32 1
  %37 = load i32, ptr %36, align 4, !tbaa !54
  %38 = getelementptr inbounds nuw %"struct.duckdb_zstd::rawSeq", ptr %6, i32 0, i32 2
  %39 = load i32, ptr %38, align 4, !tbaa !77
  %40 = add i32 %37, %39
  %41 = icmp uge i32 %35, %40
  br i1 %41, label %42, label %54

42:                                               ; preds = %27
  %43 = getelementptr inbounds nuw %"struct.duckdb_zstd::rawSeq", ptr %6, i32 0, i32 1
  %44 = load i32, ptr %43, align 4, !tbaa !54
  %45 = getelementptr inbounds nuw %"struct.duckdb_zstd::rawSeq", ptr %6, i32 0, i32 2
  %46 = load i32, ptr %45, align 4, !tbaa !77
  %47 = add i32 %44, %46
  %48 = load i32, ptr %5, align 4, !tbaa !23
  %49 = sub i32 %48, %47
  store i32 %49, ptr %5, align 4, !tbaa !23
  %50 = load ptr, ptr %3, align 8, !tbaa !3
  %51 = getelementptr inbounds nuw %"struct.duckdb_zstd::rawSeqStore_t", ptr %50, i32 0, i32 1
  %52 = load i64, ptr %51, align 8, !tbaa !81
  %53 = add i64 %52, 1
  store i64 %53, ptr %51, align 8, !tbaa !81
  br label %59

54:                                               ; preds = %27
  %55 = load i32, ptr %5, align 4, !tbaa !23
  %56 = zext i32 %55 to i64
  %57 = load ptr, ptr %3, align 8, !tbaa !3
  %58 = getelementptr inbounds nuw %"struct.duckdb_zstd::rawSeqStore_t", ptr %57, i32 0, i32 2
  store i64 %56, ptr %58, align 8, !tbaa !83
  store i32 3, ptr %7, align 4
  br label %60

59:                                               ; preds = %42
  store i32 0, ptr %7, align 4
  br label %60

60:                                               ; preds = %59, %54
  call void @llvm.lifetime.end.p0(i64 12, ptr %6) #13
  %61 = load i32, ptr %7, align 4
  switch i32 %61, label %78 [
    i32 0, label %62
    i32 3, label %63
  ]

62:                                               ; preds = %60
  br label %14, !llvm.loop !85

63:                                               ; preds = %60, %25
  %64 = load i32, ptr %5, align 4, !tbaa !23
  %65 = icmp eq i32 %64, 0
  br i1 %65, label %74, label %66

66:                                               ; preds = %63
  %67 = load ptr, ptr %3, align 8, !tbaa !3
  %68 = getelementptr inbounds nuw %"struct.duckdb_zstd::rawSeqStore_t", ptr %67, i32 0, i32 1
  %69 = load i64, ptr %68, align 8, !tbaa !81
  %70 = load ptr, ptr %3, align 8, !tbaa !3
  %71 = getelementptr inbounds nuw %"struct.duckdb_zstd::rawSeqStore_t", ptr %70, i32 0, i32 3
  %72 = load i64, ptr %71, align 8, !tbaa !47
  %73 = icmp eq i64 %69, %72
  br i1 %73, label %74, label %77

74:                                               ; preds = %66, %63
  %75 = load ptr, ptr %3, align 8, !tbaa !3
  %76 = getelementptr inbounds nuw %"struct.duckdb_zstd::rawSeqStore_t", ptr %75, i32 0, i32 2
  store i64 0, ptr %76, align 8, !tbaa !83
  br label %77

77:                                               ; preds = %74, %66
  call void @llvm.lifetime.end.p0(i64 4, ptr %5) #13
  ret void

78:                                               ; preds = %60
  unreachable
}