; Function Attrs: mustprogress nofree norecurse nosync nounwind memory(read, argmem: readwrite, inaccessiblemem: none) uwtable
define void @_ZN11duckdb_zstd29ZSTD_ldm_skipRawSeqStoreBytesEPNS_13rawSeqStore_tEm(ptr noundef captures(none) %0, i64 noundef %1) local_unnamed_addr #7 {
  %3 = getelementptr inbounds nuw i8, ptr %0, i64 16
  %4 = load i64, ptr %3, align 8, !tbaa !71
  %5 = add i64 %4, %1
  %6 = trunc i64 %5 to i32
  %.not28 = icmp eq i32 %6, 0
  br i1 %.not28, label %.critedge, label %.lr.ph

.lr.ph:                                           ; preds = %2
  %7 = getelementptr inbounds nuw i8, ptr %0, i64 8
  %8 = getelementptr inbounds nuw i8, ptr %0, i64 24
  %9 = load i64, ptr %8, align 8, !tbaa !37
  %.promoted = load i64, ptr %7, align 8, !tbaa !70
  br label %10

10:                                               ; preds = %.lr.ph, %18
  %11 = phi i64 [ %.promoted, %.lr.ph ], [ %20, %18 ]
  %.01829 = phi i32 [ %6, %.lr.ph ], [ %19, %18 ]
  %12 = icmp ult i64 %11, %9
  br i1 %12, label %13, label %.loopexit

13:                                               ; preds = %10
  %14 = load ptr, ptr %0, align 8, !tbaa !62
  %15 = getelementptr inbounds nuw %"struct.duckdb_zstd::rawSeq", ptr %14, i64 %11
  %.sroa.3.0..sroa_idx = getelementptr inbounds nuw i8, ptr %15, i64 4
  %.sroa.3.0.copyload = load i32, ptr %.sroa.3.0..sroa_idx, align 4, !tbaa !26
  %.sroa.5.0..sroa_idx = getelementptr inbounds nuw i8, ptr %15, i64 8
  %.sroa.5.0.copyload = load i32, ptr %.sroa.5.0..sroa_idx, align 4, !tbaa !26
  %16 = add i32 %.sroa.5.0.copyload, %.sroa.3.0.copyload
  %.not21 = icmp ult i32 %.01829, %16
  br i1 %.not21, label %.thread, label %18

.thread:                                          ; preds = %13
  %17 = zext i32 %.01829 to i64
  store i64 %17, ptr %3, align 8, !tbaa !71
  br label %.loopexit

18:                                               ; preds = %13
  %19 = sub nuw i32 %.01829, %16
  %20 = add nuw i64 %11, 1
  store i64 %20, ptr %7, align 8, !tbaa !70
  %.not = icmp eq i32 %19, 0
  br i1 %.not, label %.critedge, label %10

.loopexit:                                        ; preds = %10, %.thread
  %21 = icmp eq i64 %11, %9
  br i1 %21, label %.critedge, label %22

.critedge:                                        ; preds = %18, %2, %.loopexit
  store i64 0, ptr %3, align 8, !tbaa !71
  br label %22

22:                                               ; preds = %.critedge, %.loopexit
  ret void
}